; Function Attrs: mustprogress nofree nounwind willreturn memory(read, inaccessiblemem: none) uwtable
define noundef zeroext i1 @_ZNK3net9IPAddresseqERKS0_(ptr noundef nonnull readonly align 8 captures(none) dereferenceable(24) %0, ptr noundef nonnull readonly align 8 captures(none) dereferenceable(24) %1) local_unnamed_addr #6 align 2 {
  %3 = getelementptr inbounds nuw i8, ptr %0, i64 8
  %4 = load ptr, ptr %3, align 8, !tbaa !3
  %5 = load ptr, ptr %0, align 8, !tbaa !9
  %6 = ptrtoint ptr %4 to i64
  %7 = ptrtoint ptr %5 to i64
  %8 = sub i64 %6, %7
  %9 = getelementptr inbounds nuw i8, ptr %1, i64 8
  %10 = load ptr, ptr %9, align 8, !tbaa !3
  %11 = load ptr, ptr %1, align 8, !tbaa !9
  %12 = ptrtoint ptr %10 to i64
  %13 = ptrtoint ptr %11 to i64
  %14 = sub i64 %12, %13
  %15 = icmp eq i64 %8, %14
  br i1 %15, label %16, label %_ZSteqIhSaIhEEbRKSt6vectorIT_T0_ES6_.exit

16:                                               ; preds = %2
  %.not.not.i.i.i.i.i = icmp eq ptr %4, %5
  br i1 %.not.not.i.i.i.i.i, label %_ZSteqIhSaIhEEbRKSt6vectorIT_T0_ES6_.exit, label %17

17:                                               ; preds = %16
  %bcmp.i.i.i.i.i = tail call i32 @bcmp(ptr %5, ptr %11, i64 %8)
  %.not9.i.i.i.i.i = icmp eq i32 %bcmp.i.i.i.i.i, 0
  br label %_ZSteqIhSaIhEEbRKSt6vectorIT_T0_ES6_.exit

_ZSteqIhSaIhEEbRKSt6vectorIT_T0_ES6_.exit:        ; preds = %2, %16, %17
  %18 = phi i1 [ false, %2 ], [ %.not9.i.i.i.i.i, %17 ], [ true, %16 ]
  ret i1 %18
}